; Function Attrs: mustprogress uwtable
define void @_ZNK6casadi7QpToNlp8free_memEPv(ptr noundef nonnull align 8 dereferenceable(1480) %0, ptr noundef %1) unnamed_addr #3 align 2 personality ptr @__gxx_personality_v0 {
  %3 = getelementptr inbounds i8, ptr %0, i64 1472
  %4 = getelementptr inbounds i8, ptr %1, i64 192
  %5 = load i64, ptr %4, align 8
  %6 = trunc i64 %5 to i32
  tail call void @_ZNK6casadi8Function7releaseEi(ptr noundef nonnull align 8 dereferenceable(8) %3, i32 noundef %6)
  %7 = getelementptr inbounds i8, ptr %1, i64 16
  %8 = load ptr, ptr %7, align 8
  invoke void @_ZNSt8_Rb_treeINSt7__cxx1112basic_stringIcSt11char_traitsIcESaIcEEESt4pairIKS5_N6casadi6FStatsEESt10_Select1stISA_ESt4lessIS5_ESaISA_EE8_M_eraseEPSt13_Rb_tree_nodeISA_E(ptr noundef nonnull align 8 dereferenceable(48) %1, ptr noundef %8)
          to label %12 unwind label %9

9:                                                ; preds = %2
  %10 = landingpad { ptr, i32 }
          catch ptr null
  %11 = extractvalue { ptr, i32 } %10, 0
  tail call void @__clang_call_terminate(ptr %11) #21
  unreachable

12:                                               ; preds = %2
  tail call void @_ZdlPv(ptr noundef nonnull %1) #19
  ret void
}